target datalayout = "e-m:e-p270:32:32-p271:32:32-p272:64:64-i64:64-i128:128-f80:128-n8:16:32:64-S128"
target triple = "x86_64-pc-linux-gnu"

%struct.gmx_ana_selmethod_t = type { ptr, i32, i32, i32, ptr, ptr, ptr, ptr, ptr, ptr, ptr, ptr, ptr, %struct.gmx_ana_selmethod_help_t }
%struct.gmx_ana_selmethod_help_t = type { ptr, ptr, i32, ptr }
%struct.gmx_ana_selvalue_t = type { i32, i32, %union.anon, i32 }
%union.anon = type { ptr }
%struct.gmx_ana_index_t = type { i32, ptr, i32 }
%struct.gmx_ana_selparam_t = type { ptr, %struct.gmx_ana_selvalue_t, ptr, i32 }

@.str.20 = private unnamed_addr constant [127 x i8] c"generated/home/dtcxzyw/WorkSpace/Projects/compilers/llvm-opt-benchmark/bench/gromacs/gromacs/src/gromacs/selection/selelem.cpp\00", align 1
@.str.43 = private unnamed_addr constant [14 x i8] c"method->param\00", align 1
@.str.44 = private unnamed_addr constant [7 x i8] c"method\00", align 1
@.str.45 = private unnamed_addr constant [6 x i8] c"mdata\00", align 1

; Function Attrs: mustprogress uwtable
define internal void @_ZL14gmx_sfree_implIvEvPKcS1_iPT_(ptr noundef %0, ptr noundef %1, i32 noundef %2, ptr noundef %3) #1 {
  %5 = alloca ptr, align 8
  %6 = alloca ptr, align 8
  %7 = alloca i32, align 4
  %8 = alloca ptr, align 8
  store ptr %0, ptr %5, align 8
  store ptr %1, ptr %6, align 8
  store i32 %2, ptr %7, align 4
  store ptr %3, ptr %8, align 8
  %9 = load ptr, ptr %5, align 8
  %10 = load ptr, ptr %6, align 8
  %11 = load i32, ptr %7, align 4
  %12 = load ptr, ptr %8, align 8
  call void @_Z9save_freePKcS0_iPv(ptr noundef %9, ptr noundef %10, i32 noundef %11, ptr noundef %12)
  ret void
}

; Function Attrs: mustprogress uwtable
define internal void @_ZL14gmx_sfree_implI19gmx_ana_selmethod_tEvPKcS2_iPT_(ptr noundef %0, ptr noundef %1, i32 noundef %2, ptr noundef %3) #1 {
  %5 = alloca ptr, align 8
  %6 = alloca ptr, align 8
  %7 = alloca i32, align 4
  %8 = alloca ptr, align 8
  store ptr %0, ptr %5, align 8
  store ptr %1, ptr %6, align 8
  store i32 %2, ptr %7, align 4
  store ptr %3, ptr %8, align 8
  %9 = load ptr, ptr %5, align 8
  %10 = load ptr, ptr %6, align 8
  %11 = load i32, ptr %7, align 4
  %12 = load ptr, ptr %8, align 8
  call void @_Z9save_freePKcS0_iPv(ptr noundef %9, ptr noundef %10, i32 noundef %11, ptr noundef %12)
  ret void
}

; Function Attrs: mustprogress uwtable
define internal void @_ZL14gmx_sfree_implI18gmx_ana_selparam_tEvPKcS2_iPT_(ptr noundef %0, ptr noundef %1, i32 noundef %2, ptr noundef %3) #1 {
  %5 = alloca ptr, align 8
  %6 = alloca ptr, align 8
  %7 = alloca i32, align 4
  %8 = alloca ptr, align 8
  store ptr %0, ptr %5, align 8
  store ptr %1, ptr %6, align 8
  store i32 %2, ptr %7, align 4
  store ptr %3, ptr %8, align 8
  %9 = load ptr, ptr %5, align 8
  %10 = load ptr, ptr %6, align 8
  %11 = load i32, ptr %7, align 4
  %12 = load ptr, ptr %8, align 8
  call void @_Z9save_freePKcS0_iPv(ptr noundef %9, ptr noundef %10, i32 noundef %11, ptr noundef %12)
  ret void
}

; Function Attrs: mustprogress uwtable
define void @_Z23_gmx_selelem_free_paramP18gmx_ana_selparam_t(ptr noundef %0) #1 {
  %2 = alloca ptr, align 8
  %3 = alloca i32, align 4
  store ptr %0, ptr %2, align 8
  %4 = load ptr, ptr %2, align 8
  %5 = getelementptr inbounds %struct.gmx_ana_selparam_t, ptr %4, i32 0, i32 1
  %6 = getelementptr inbounds %struct.gmx_ana_selvalue_t, ptr %5, i32 0, i32 2
  %7 = load ptr, ptr %6, align 8
  %8 = icmp ne ptr %7, null
  br i1 %8, label %9, label %38

9:                                                ; preds = %1
  %10 = load ptr, ptr %2, align 8
  %11 = getelementptr inbounds %struct.gmx_ana_selparam_t, ptr %10, i32 0, i32 1
  %12 = getelementptr inbounds %struct.gmx_ana_selvalue_t, ptr %11, i32 0, i32 0
  %13 = load i32, ptr %12, align 8
  %14 = icmp eq i32 %13, 5
  br i1 %14, label %15, label %35

15:                                               ; preds = %9
  store i32 0, ptr %3, align 4
  br label %16

16:                                               ; preds = %31, %15
  %17 = load i32, ptr %3, align 4
  %18 = load ptr, ptr %2, align 8
  %19 = getelementptr inbounds %struct.gmx_ana_selparam_t, ptr %18, i32 0, i32 1
  %20 = getelementptr inbounds %struct.gmx_ana_selvalue_t, ptr %19, i32 0, i32 1
  %21 = load i32, ptr %20, align 4
  %22 = icmp slt i32 %17, %21
  br i1 %22, label %23, label %34

23:                                               ; preds = %16
  %24 = load ptr, ptr %2, align 8
  %25 = getelementptr inbounds %struct.gmx_ana_selparam_t, ptr %24, i32 0, i32 1
  %26 = getelementptr inbounds %struct.gmx_ana_selvalue_t, ptr %25, i32 0, i32 2
  %27 = load ptr, ptr %26, align 8
  %28 = load i32, ptr %3, align 4
  %29 = sext i32 %28 to i64
  %30 = getelementptr inbounds %struct.gmx_ana_index_t, ptr %27, i64 %29
  call void @_Z20gmx_ana_index_deinitP15gmx_ana_index_t(ptr noundef %30)
  br label %31

31:                                               ; preds = %23
  %32 = load i32, ptr %3, align 4
  %33 = add nsw i32 %32, 1
  store i32 %33, ptr %3, align 4
  br label %16, !llvm.loop !8

34:                                               ; preds = %16
  br label %35

35:                                               ; preds = %34, %9
  %36 = load ptr, ptr %2, align 8
  %37 = getelementptr inbounds %struct.gmx_ana_selparam_t, ptr %36, i32 0, i32 1
  call void @_Z18_gmx_selvalue_freeP18gmx_ana_selvalue_t(ptr noundef %37)
  br label %38

38:                                               ; preds = %35, %1
  ret void
}

; Function Attrs: mustprogress uwtable
define void @_Z24_gmx_selelem_free_methodP19gmx_ana_selmethod_tPv(ptr noundef %0, ptr noundef %1) #1 {
  %3 = alloca ptr, align 8
  %4 = alloca ptr, align 8
  %5 = alloca ptr, align 8
  %6 = alloca i32, align 4
  store ptr %0, ptr %3, align 8
  store ptr %1, ptr %4, align 8
  store ptr null, ptr %5, align 8
  %7 = load ptr, ptr %3, align 8
  %8 = icmp ne ptr %7, null
  br i1 %8, label %9, label %18

9:                                                ; preds = %2
  %10 = load ptr, ptr %3, align 8
  %11 = getelementptr inbounds %struct.gmx_ana_selmethod_t, ptr %10, i32 0, i32 9
  %12 = load ptr, ptr %11, align 8
  %13 = icmp ne ptr %12, null
  br i1 %13, label %14, label %18

14:                                               ; preds = %9
  %15 = load ptr, ptr %3, align 8
  %16 = getelementptr inbounds %struct.gmx_ana_selmethod_t, ptr %15, i32 0, i32 9
  %17 = load ptr, ptr %16, align 8
  store ptr %17, ptr %5, align 8
  br label %18

18:                                               ; preds = %14, %9, %2
  %19 = load ptr, ptr %3, align 8
  %20 = icmp ne ptr %19, null
  br i1 %20, label %21, label %43

21:                                               ; preds = %18
  store i32 0, ptr %6, align 4
  br label %22

22:                                               ; preds = %35, %21
  %23 = load i32, ptr %6, align 4
  %24 = load ptr, ptr %3, align 8
  %25 = getelementptr inbounds %struct.gmx_ana_selmethod_t, ptr %24, i32 0, i32 3
  %26 = load i32, ptr %25, align 8
  %27 = icmp slt i32 %23, %26
  br i1 %27, label %28, label %38

28:                                               ; preds = %22
  %29 = load ptr, ptr %3, align 8
  %30 = getelementptr inbounds %struct.gmx_ana_selmethod_t, ptr %29, i32 0, i32 4
  %31 = load ptr, ptr %30, align 8
  %32 = load i32, ptr %6, align 4
  %33 = sext i32 %32 to i64
  %34 = getelementptr inbounds %struct.gmx_ana_selparam_t, ptr %31, i64 %33
  call void @_Z23_gmx_selelem_free_paramP18gmx_ana_selparam_t(ptr noundef %34)
  br label %35

35:                                               ; preds = %28
  %36 = load i32, ptr %6, align 4
  %37 = add nsw i32 %36, 1
  store i32 %37, ptr %6, align 4
  br label %22, !llvm.loop !9

38:                                               ; preds = %22
  %39 = load ptr, ptr %3, align 8
  %40 = getelementptr inbounds %struct.gmx_ana_selmethod_t, ptr %39, i32 0, i32 4
  %41 = load ptr, ptr %40, align 8
  call void @_ZL14gmx_sfree_implI18gmx_ana_selparam_tEvPKcS2_iPT_(ptr noundef @.str.43, ptr noundef @.str.20, i32 noundef 532, ptr noundef %41)
  %42 = load ptr, ptr %3, align 8
  call void @_ZL14gmx_sfree_implI19gmx_ana_selmethod_tEvPKcS2_iPT_(ptr noundef @.str.44, ptr noundef @.str.20, i32 noundef 533, ptr noundef %42)
  br label %43

43:                                               ; preds = %38, %18
  %44 = load ptr, ptr %4, align 8
  %45 = icmp ne ptr %44, null
  br i1 %45, label %46, label %55

46:                                               ; preds = %43
  %47 = load ptr, ptr %5, align 8
  %48 = icmp ne ptr %47, null
  br i1 %48, label %49, label %52

49:                                               ; preds = %46
  %50 = load ptr, ptr %5, align 8
  %51 = load ptr, ptr %4, align 8
  call void %50(ptr noundef %51)
  br label %54

52:                                               ; preds = %46
  %53 = load ptr, ptr %4, align 8
  call void @_ZL14gmx_sfree_implIvEvPKcS1_iPT_(ptr noundef @.str.45, ptr noundef @.str.20, i32 noundef 544, ptr noundef %53)
  br label %54

54:                                               ; preds = %52, %49
  br label %55

55:                                               ; preds = %54, %43
  ret void
}