; Function Attrs: mustprogress uwtable
define void @_Z24_gmx_selelem_free_methodP19gmx_ana_selmethod_tPv(ptr noundef %0, ptr noundef %1) local_unnamed_addr #1 {
  %.not = icmp eq ptr %0, null
  br i1 %.not, label %.thread24, label %3

3:                                                ; preds = %2
  %4 = getelementptr inbounds i8, ptr %0, i64 64
  %5 = load ptr, ptr %4, align 8
  %6 = getelementptr inbounds i8, ptr %0, i64 16
  %7 = load i32, ptr %6, align 8
  %8 = icmp sgt i32 %7, 0
  br i1 %8, label %.lr.ph, label %._crit_edge

.lr.ph:                                           ; preds = %3
  %9 = getelementptr inbounds i8, ptr %0, i64 24
  br label %10

10:                                               ; preds = %.lr.ph, %_Z23_gmx_selelem_free_paramP18gmx_ana_selparam_t.exit
  %11 = phi i32 [ %7, %.lr.ph ], [ %28, %_Z23_gmx_selelem_free_paramP18gmx_ana_selparam_t.exit ]
  %indvars.iv = phi i64 [ 0, %.lr.ph ], [ %indvars.iv.next, %_Z23_gmx_selelem_free_paramP18gmx_ana_selparam_t.exit ]
  %12 = load ptr, ptr %9, align 8
  %13 = getelementptr inbounds %struct.gmx_ana_selparam_t, ptr %12, i64 %indvars.iv
  %14 = getelementptr inbounds i8, ptr %13, i64 8
  %15 = getelementptr inbounds i8, ptr %13, i64 16
  %16 = load ptr, ptr %15, align 8
  %.not.i = icmp eq ptr %16, null
  br i1 %.not.i, label %_Z23_gmx_selelem_free_paramP18gmx_ana_selparam_t.exit, label %17

17:                                               ; preds = %10
  %18 = load i32, ptr %14, align 8
  %19 = icmp eq i32 %18, 5
  br i1 %19, label %.preheader.i, label %.loopexit.i

.preheader.i:                                     ; preds = %17
  %20 = getelementptr inbounds i8, ptr %13, i64 12
  %21 = load i32, ptr %20, align 4
  %22 = icmp sgt i32 %21, 0
  br i1 %22, label %.lr.ph.i, label %.loopexit.i

.lr.ph.i:                                         ; preds = %.preheader.i, %.lr.ph.i
  %indvars.iv.i = phi i64 [ %indvars.iv.next.i, %.lr.ph.i ], [ 0, %.preheader.i ]
  %23 = load ptr, ptr %15, align 8
  %24 = getelementptr inbounds %struct.gmx_ana_index_t, ptr %23, i64 %indvars.iv.i
  tail call void @_Z20gmx_ana_index_deinitP15gmx_ana_index_t(ptr noundef %24)
  %indvars.iv.next.i = add nuw nsw i64 %indvars.iv.i, 1
  %25 = load i32, ptr %20, align 4
  %26 = sext i32 %25 to i64
  %27 = icmp slt i64 %indvars.iv.next.i, %26
  br i1 %27, label %.lr.ph.i, label %.loopexit.i, !llvm.loop !8

.loopexit.i:                                      ; preds = %.lr.ph.i, %.preheader.i, %17
  tail call void @_Z18_gmx_selvalue_freeP18gmx_ana_selvalue_t(ptr noundef nonnull %14)
  %.pre = load i32, ptr %6, align 8
  br label %_Z23_gmx_selelem_free_paramP18gmx_ana_selparam_t.exit

_Z23_gmx_selelem_free_paramP18gmx_ana_selparam_t.exit: ; preds = %10, %.loopexit.i
  %28 = phi i32 [ %11, %10 ], [ %.pre, %.loopexit.i ]
  %indvars.iv.next = add nuw nsw i64 %indvars.iv, 1
  %29 = sext i32 %28 to i64
  %30 = icmp slt i64 %indvars.iv.next, %29
  br i1 %30, label %10, label %._crit_edge, !llvm.loop !9

._crit_edge:                                      ; preds = %_Z23_gmx_selelem_free_paramP18gmx_ana_selparam_t.exit, %3
  %31 = getelementptr inbounds i8, ptr %0, i64 24
  %32 = load ptr, ptr %31, align 8
  tail call void @_Z9save_freePKcS0_iPv(ptr noundef nonnull @.str.43, ptr noundef nonnull @.str.20, i32 noundef 532, ptr noundef %32)
  tail call void @_Z9save_freePKcS0_iPv(ptr noundef nonnull @.str.44, ptr noundef nonnull @.str.20, i32 noundef 533, ptr noundef nonnull %0)
  %.not20 = icmp eq ptr %1, null
  br i1 %.not20, label %35, label %33

.thread24:                                        ; preds = %2
  %.not2026 = icmp eq ptr %1, null
  br i1 %.not2026, label %35, label %.thread28

33:                                               ; preds = %._crit_edge
  %.not21 = icmp eq ptr %5, null
  br i1 %.not21, label %.thread28, label %34

34:                                               ; preds = %33
  tail call void %5(ptr noundef nonnull %1)
  br label %35

.thread28:                                        ; preds = %.thread24, %33
  tail call void @_Z9save_freePKcS0_iPv(ptr noundef nonnull @.str.45, ptr noundef nonnull @.str.20, i32 noundef 544, ptr noundef nonnull %1)
  br label %35

35:                                               ; preds = %.thread24, %34, %.thread28, %._crit_edge
  ret void
}